; ModuleID = 'source-C-CXX/9/1044.c'
source_filename = "source-C-CXX/9/1044.c"
target datalayout = "e-m:e-p270:32:32-p271:32:32-p272:64:64-i64:64-f80:128-n8:16:32:64-S128"
target triple = "x86_64-pc-linux-gnu"

@a = dso_local global [26 x i32] zeroinitializer, align 16
@n = dso_local global i32 0, align 4
@.str = private unnamed_addr constant [3 x i8] c"%d\00", align 1

; Function Attrs: nofree nosync nounwind readonly sspstrong uwtable
define dso_local i32 @sum(i32 %0, i32 %1) local_unnamed_addr #0 {
  %3 = icmp eq i32 %0, 0
  br i1 %3, label %14, label %4

4:                                                ; preds = %2
  %5 = load i32, i32* @n, align 4
  %6 = sext i32 %0 to i64
  %7 = sext i32 %5 to i64
  br label %8

8:                                                ; preds = %4, %24
  %9 = phi i64 [ %6, %4 ], [ %25, %24 ]
  %10 = sub nsw i64 %7, %9
  %11 = getelementptr inbounds [26 x i32], [26 x i32]* @a, i64 0, i64 %10
  %12 = load i32, i32* %11, align 4, !tbaa !5
  %13 = icmp sgt i32 %12, %1
  br i1 %13, label %24, label %16

14:                                               ; preds = %24, %2, %16
  %15 = phi i32 [ %23, %16 ], [ 0, %2 ], [ 0, %24 ]
  ret i32 %15

16:                                               ; preds = %8
  %17 = trunc i64 %9 to i32
  %18 = add nsw i32 %17, -1
  %19 = tail call i32 @sum(i32 %18, i32 %12)
  %20 = add nsw i32 %19, 1
  %21 = tail call i32 @sum(i32 %18, i32 %1)
  %22 = icmp slt i32 %20, %21
  %23 = select i1 %22, i32 %21, i32 %20
  br label %14

24:                                               ; preds = %8
  %25 = add nsw i64 %9, -1
  %26 = trunc i64 %25 to i32
  %27 = icmp eq i32 %26, 0
  br i1 %27, label %14, label %8
}

; Function Attrs: nofree nounwind sspstrong uwtable
define dso_local i32 @main() local_unnamed_addr #1 {
  %1 = tail call i32 (i8*, ...) @__isoc99_scanf(i8* getelementptr inbounds ([3 x i8], [3 x i8]* @.str, i64 0, i64 0), i32* nonnull @n)
  %2 = load i32, i32* @n, align 4, !tbaa !5
  %3 = icmp slt i32 %2, 1
  br i1 %3, label %13, label %4

4:                                                ; preds = %0, %4
  %5 = phi i64 [ %9, %4 ], [ 1, %0 ]
  %6 = add nsw i64 %5, -1
  %7 = getelementptr inbounds [26 x i32], [26 x i32]* @a, i64 0, i64 %6
  %8 = tail call i32 (i8*, ...) @__isoc99_scanf(i8* getelementptr inbounds ([3 x i8], [3 x i8]* @.str, i64 0, i64 0), i32* nonnull %7)
  %9 = add nuw nsw i64 %5, 1
  %10 = load i32, i32* @n, align 4, !tbaa !5
  %11 = sext i32 %10 to i64
  %12 = icmp slt i64 %5, %11
  br i1 %12, label %4, label %13, !llvm.loop !9

13:                                               ; preds = %4, %0
  %14 = phi i32 [ %2, %0 ], [ %10, %4 ]
  %15 = tail call i32 @sum(i32 %14, i32 9999)
  %16 = tail call i32 (i8*, ...) @printf(i8* nonnull dereferenceable(1) getelementptr inbounds ([3 x i8], [3 x i8]* @.str, i64 0, i64 0), i32 %15)
  ret i32 0
}

; Function Attrs: nofree nounwind
declare noundef i32 @__isoc99_scanf(i8* nocapture noundef readonly, ...) local_unnamed_addr #2

; Function Attrs: nofree nounwind
declare noundef i32 @printf(i8* nocapture noundef readonly, ...) local_unnamed_addr #2


!llvm.module.flags = !{!0, !1, !2, !3}
!llvm.ident = !{!4}

!0 = !{i32 1, !"wchar_size", i32 4}
!1 = !{i32 7, !"PIC Level", i32 2}
!2 = !{i32 7, !"PIE Level", i32 2}
!3 = !{i32 7, !"uwtable", i32 1}
!4 = !{!"clang version 13.0.0"}
!5 = !{!6, !6, i64 0}
!6 = !{!"int", !7, i64 0}
!7 = !{!"omnipotent char", !8, i64 0}
!8 = !{!"Simple C/C++ TBAA"}
!9 = distinct !{!9, !10}
!10 = !{!"llvm.loop.mustprogress"}
